; Function Attrs: mustprogress uwtable
define dso_local void @_ZN10cmDebugger19cmDebuggerVariables15AddSubVariablesERKSt10shared_ptrIS0_E(ptr noundef nonnull align 8 dereferenceable(160) %0, ptr noundef nonnull align 8 dereferenceable(16) %1) local_unnamed_addr #1 align 2 personality ptr @__gxx_personality_v0 {
  %3 = load ptr, ptr %1, align 8
  %.not = icmp eq ptr %3, null
  br i1 %.not, label %_ZNSt6vectorISt10shared_ptrIN10cmDebugger19cmDebuggerVariablesEESaIS3_EE12emplace_backIJRKS3_EEERS3_DpOT_.exit, label %4

4:                                                ; preds = %2
  %5 = getelementptr inbounds i8, ptr %0, i64 120
  %6 = load ptr, ptr %5, align 8
  %7 = getelementptr inbounds i8, ptr %0, i64 128
  %8 = load ptr, ptr %7, align 8
  %.not.i = icmp eq ptr %6, %8
  br i1 %.not.i, label %23, label %9

9:                                                ; preds = %4
  store ptr %3, ptr %6, align 8
  %10 = getelementptr inbounds i8, ptr %6, i64 8
  %11 = getelementptr inbounds i8, ptr %1, i64 8
  %12 = load ptr, ptr %11, align 8
  store ptr %12, ptr %10, align 8
  %.not.i.i.i.i.i.i = icmp eq ptr %12, null
  br i1 %.not.i.i.i.i.i.i, label %_ZNSt16allocator_traitsISaISt10shared_ptrIN10cmDebugger19cmDebuggerVariablesEEEE9constructIS3_JRKS3_EEEvRS4_PT_DpOT0_.exit.i, label %13

13:                                               ; preds = %9
  %14 = getelementptr inbounds i8, ptr %12, i64 8
  %15 = load i8, ptr @__libc_single_threaded, align 1
  %.not.i.i.i.i.i.i.i = icmp eq i8 %15, 0
  br i1 %.not.i.i.i.i.i.i.i, label %19, label %16

16:                                               ; preds = %13
  %17 = load i32, ptr %14, align 4
  %18 = add nsw i32 %17, 1
  store i32 %18, ptr %14, align 4
  br label %_ZNSt16allocator_traitsISaISt10shared_ptrIN10cmDebugger19cmDebuggerVariablesEEEE9constructIS3_JRKS3_EEEvRS4_PT_DpOT0_.exit.i

19:                                               ; preds = %13
  %20 = atomicrmw volatile add ptr %14, i32 1 acq_rel, align 4
  br label %_ZNSt16allocator_traitsISaISt10shared_ptrIN10cmDebugger19cmDebuggerVariablesEEEE9constructIS3_JRKS3_EEEvRS4_PT_DpOT0_.exit.i

_ZNSt16allocator_traitsISaISt10shared_ptrIN10cmDebugger19cmDebuggerVariablesEEEE9constructIS3_JRKS3_EEEvRS4_PT_DpOT0_.exit.i: ; preds = %19, %16, %9
  %21 = load ptr, ptr %5, align 8
  %22 = getelementptr inbounds i8, ptr %21, i64 16
  store ptr %22, ptr %5, align 8
  br label %_ZNSt6vectorISt10shared_ptrIN10cmDebugger19cmDebuggerVariablesEESaIS3_EE12emplace_backIJRKS3_EEERS3_DpOT_.exit

23:                                               ; preds = %4
  %24 = getelementptr inbounds i8, ptr %0, i64 112
  tail call void @_ZNSt6vectorISt10shared_ptrIN10cmDebugger19cmDebuggerVariablesEESaIS3_EE17_M_realloc_insertIJRKS3_EEEvN9__gnu_cxx17__normal_iteratorIPS3_S5_EEDpOT_(ptr noundef nonnull align 8 dereferenceable(24) %24, ptr %6, ptr noundef nonnull align 8 dereferenceable(16) %1)
  br label %_ZNSt6vectorISt10shared_ptrIN10cmDebugger19cmDebuggerVariablesEESaIS3_EE12emplace_backIJRKS3_EEERS3_DpOT_.exit

_ZNSt6vectorISt10shared_ptrIN10cmDebugger19cmDebuggerVariablesEESaIS3_EE12emplace_backIJRKS3_EEERS3_DpOT_.exit: ; preds = %23, %_ZNSt16allocator_traitsISaISt10shared_ptrIN10cmDebugger19cmDebuggerVariablesEEEE9constructIS3_JRKS3_EEEvRS4_PT_DpOT0_.exit.i, %2
  ret void
}